target datalayout = "e-m:e-p270:32:32-p271:32:32-p272:64:64-i64:64-i128:128-f80:128-n8:16:32:64-S128"
target triple = "x86_64-pc-linux-gnu"

%struct.AVTextFormatContext = type { ptr, ptr, ptr, ptr, ptr, ptr, i32, i32, [12 x i32], [12 x [100 x i32]], [12 x ptr], [12 x %struct.AVBPrint], i32, i32, i32, i32, i32, ptr, i32, ptr, i32 }
%struct.AVBPrint = type { ptr, i32, i32, i32, [1 x i8], [1000 x i8] }
%struct.XMLContext = type { ptr, i32, i32, i32, i32 }

@.str.9 = private unnamed_addr constant [139 x i8] c"XSD-compliant output selected but option '%s' was selected, XML output may be non-compliant.\0AYou need to disable such option with '-no%s'\0A\00", align 1
@.str.10 = private unnamed_addr constant [5 x i8] c"unit\00", align 1
@.str.11 = private unnamed_addr constant [7 x i8] c"prefix\00", align 1

; Function Attrs: cold nounwind optsize uwtable
define internal i32 @xml_init(ptr noundef %0) #0 {
  %2 = alloca i32, align 4
  %3 = alloca ptr, align 8
  %4 = alloca ptr, align 8
  %5 = alloca i32, align 4
  store ptr %0, ptr %3, align 8, !tbaa !4
  call void @llvm.lifetime.start.p0(i64 8, ptr %4) #6
  %6 = load ptr, ptr %3, align 8, !tbaa !4
  %7 = getelementptr inbounds nuw %struct.AVTextFormatContext, ptr %6, i32 0, i32 4
  %8 = load ptr, ptr %7, align 8, !tbaa !9
  store ptr %8, ptr %4, align 8, !tbaa !18
  %9 = load ptr, ptr %4, align 8, !tbaa !18
  %10 = getelementptr inbounds nuw %struct.XMLContext, ptr %9, i32 0, i32 4
  %11 = load i32, ptr %10, align 4, !tbaa !20
  %12 = icmp ne i32 %11, 0
  br i1 %12, label %13, label %30

13:                                               ; preds = %1
  %14 = load ptr, ptr %4, align 8, !tbaa !18
  %15 = getelementptr inbounds nuw %struct.XMLContext, ptr %14, i32 0, i32 3
  store i32 1, ptr %15, align 8, !tbaa !22
  %16 = load ptr, ptr %3, align 8, !tbaa !4
  %17 = getelementptr inbounds nuw %struct.AVTextFormatContext, ptr %16, i32 0, i32 13
  %18 = load i32, ptr %17, align 4, !tbaa !23
  %19 = icmp ne i32 %18, 0
  br i1 %19, label %20, label %22

20:                                               ; preds = %13
  %21 = load ptr, ptr %3, align 8, !tbaa !4
  call void (ptr, i32, ptr, ...) @av_log(ptr noundef %21, i32 noundef 16, ptr noundef @.str.9, ptr noundef @.str.10, ptr noundef @.str.10)
  store i32 -22, ptr %2, align 4
  store i32 1, ptr %5, align 4
  br label %31

22:                                               ; preds = %13
  %23 = load ptr, ptr %3, align 8, !tbaa !4
  %24 = getelementptr inbounds nuw %struct.AVTextFormatContext, ptr %23, i32 0, i32 14
  %25 = load i32, ptr %24, align 8, !tbaa !24
  %26 = icmp ne i32 %25, 0
  br i1 %26, label %27, label %29

27:                                               ; preds = %22
  %28 = load ptr, ptr %3, align 8, !tbaa !4
  call void (ptr, i32, ptr, ...) @av_log(ptr noundef %28, i32 noundef 16, ptr noundef @.str.9, ptr noundef @.str.11, ptr noundef @.str.11)
  store i32 -22, ptr %2, align 4
  store i32 1, ptr %5, align 4
  br label %31

29:                                               ; preds = %22
  br label %30

30:                                               ; preds = %29, %1
  store i32 0, ptr %2, align 4
  store i32 1, ptr %5, align 4
  br label %31

31:                                               ; preds = %30, %27, %20
  call void @llvm.lifetime.end.p0(i64 8, ptr %4) #6
  %32 = load i32, ptr %2, align 4
  ret i32 %32
}