; Function Attrs: cold nounwind optsize uwtable
define internal range(i32 -22, 1) i32 @xml_init(ptr noundef %0) #0 {
  %2 = getelementptr inbounds nuw i8, ptr %0, i64 32
  %3 = load ptr, ptr %2, align 8, !tbaa !4
  %4 = getelementptr inbounds nuw i8, ptr %3, i64 20
  %5 = load i32, ptr %4, align 4, !tbaa !16
  %.not = icmp eq i32 %5, 0
  br i1 %.not, label %15, label %6

6:                                                ; preds = %1
  %7 = getelementptr inbounds nuw i8, ptr %3, i64 16
  store i32 1, ptr %7, align 8, !tbaa !18
  %8 = getelementptr inbounds nuw i8, ptr %0, i64 17292
  %9 = load i32, ptr %8, align 4, !tbaa !19
  %.not7 = icmp eq i32 %9, 0
  br i1 %.not7, label %11, label %10

10:                                               ; preds = %6
  tail call void (ptr, i32, ptr, ...) @av_log(ptr noundef nonnull %0, i32 noundef 16, ptr noundef nonnull @.str.9, ptr noundef nonnull @.str.10, ptr noundef nonnull @.str.10) #6
  br label %15

11:                                               ; preds = %6
  %12 = getelementptr inbounds nuw i8, ptr %0, i64 17296
  %13 = load i32, ptr %12, align 8, !tbaa !20
  %.not8 = icmp eq i32 %13, 0
  br i1 %.not8, label %15, label %14

14:                                               ; preds = %11
  tail call void (ptr, i32, ptr, ...) @av_log(ptr noundef nonnull %0, i32 noundef 16, ptr noundef nonnull @.str.9, ptr noundef nonnull @.str.11, ptr noundef nonnull @.str.11) #6
  br label %15

15:                                               ; preds = %1, %11, %14, %10
  %.0 = phi i32 [ -22, %10 ], [ -22, %14 ], [ 0, %11 ], [ 0, %1 ]
  ret i32 %.0
}